Certificate:
    Data:
        Version: 3 (0x2)
        Serial Number: 1 (0x1)
        Signature Algorithm: sha256WithRSAEncryption
        Issuer: C=GB, ST=London, L=Westminster, O=Snake Oil (Sales) Ltd, OU=Certification Services Division, CN=Snake Oil Root CA/emailAddress=cobra@badguys.com
        Validity
            Not Before: Feb 28 14:34:07 2024 GMT
            Not After : Nov 24 14:34:07 2026 GMT
        Subject: C=GB, ST=London, L=Westminster, O=Snake Oil (Trading) Ltd, OU=Secure Web Server, CN=localhost/emailAddress=python@badguys.com
        Subject Public Key Info:
            Public Key Algorithm: rsaEncryption
                Public-Key: (2048 bit)
                Modulus:
                    00:de:c2:7d:b2:d8:d1:fc:3a:d3:fc:9f:9c:20:dd:
                    5c:48:f3:eb:db:57:b8:0c:56:00:42:37:2f:ce:9a:
                    20:d5:31:19:48:c3:f5:b9:db:86:f6:21:c2:17:c2:
                    5a:36:71:9e:f2:32:c7:85:d1:36:a5:3f:c1:76:14:
                    f0:bf:1d:52:8b:04:88:8d:ea:db:c6:dd:1e:43:71:
                    db:68:30:7f:9f:41:c3:1c:62:d9:ae:ad:a8:59:3f:
                    25:c9:68:4a:72:97:9e:aa:0a:df:24:5d:72:23:1b:
                    5d:4f:5a:74:cc:55:5e:df:91:d4:29:28:9f:65:96:
                    2b:47:75:46:cb:0f:75:a3:ae:1e:f0:dc:d4:42:ec:
                    73:bc:1b:89:67:f2:2e:34:fa:39:8e:79:94:d0:47:
                    f6:36:dc:9f:af:a8:d5:69:df:4b:8c:20:ca:4c:0e:
                    39:4b:4c:cc:3f:c3:99:af:b2:f3:40:5c:92:f3:fb:
                    93:b9:ea:61:5d:b7:c9:77:85:a0:4e:1c:c5:fc:49:
                    cd:a9:da:ec:2c:2f:64:ee:8e:3d:d1:2d:26:dc:06:
                    77:5c:a5:d0:b5:a2:70:5b:0a:bc:f3:53:78:19:50:
                    c7:59:17:8f:85:93:ab:96:0c:98:72:af:90:16:42:
                    72:78:bb:0a:15:8e:6f:2c:f4:1d:4b:e5:e4:5c:67:
                    2e:15
                Exponent: 65537 (0x10001)
        X509v3 extensions:
            X509v3 Authority Key Identifier: 
                49:AF:87:7A:BB:01:A7:42:E6:17:76:4A:7F:7C:20:DD:FC:F4:61:B8
            X509v3 Extended Key Usage: 
                TLS Web Server Authentication, TLS Web Client Authentication, Microsoft Server Gated Crypto, Netscape Server Gated Crypto
            X509v3 Basic Constraints: critical
                CA:FALSE
            X509v3 Subject Key Identifier: 
                E2:BD:0D:C4:17:71:71:B9:A5:C8:D1:18:C0:61:16:1A:4D:70:80:34
    Signature Algorithm: sha256WithRSAEncryption
    Signature Value:
        2e:ee:0d:22:80:ea:9c:2e:c7:34:ef:e9:6f:c4:b8:b7:5b:d2:
        0c:e1:ae:1b:d2:e9:18:bd:e5:85:be:37:bc:bf:f7:e7:6e:9a:
        ed:fc:d4:7a:8d:18:1c:e5:a7:ce:4c:db:01:ac:ad:67:a0:1b:
        d7:bd:03:be:4c:41:66:5e:8d:ad:83:c5:3d:90:b9:f9:1c:65:
        25:59:5a:12:03:65:16:5a:a7:01:6f:ec:d7:a3:98:57:a8:d5:
        c4:ad:20:dc:ef:03:87:9e:ff:61:ba:1b:56:42:1c:91:5a:b5:
        18:59:a4:82:a2:42:c1:60:f7:70:d8:12:b6:05:49:1f:9e:2b:
        f5:61:00:b7:7a:34:08:08:2d:24:be:76:6a:1a:cc:53:92:54:
        66:8a:7b:5e:8f:c4:94:22:72:c9:4c:e4:4c:ec:12:ea:9b:47:
        4a:4a:8f:2e:c3:32:6c:f2:69:a9:2c:42:67:d4:93:be:40:20:
        53:9d:c9:76:ad:3f:57:e7:13:e1:57:7b:1a:44:e5:40:d0:7b:
        e7:c6:dd:f8:1e:0b:0e:9f:56:f6:d6:26:9b:fe:14:78:df:d0:
        6a:84:50:05:d8:2f:c8:df:6a:05:d3:a0:af:72:2c:6b:1c:0a:
        47:83:17:62:da:91:87:9c:43:3a:a7:3d:2a:b2:b1:79:ab:85:
        2f:49:f9:3a:a1:66:ca:b9:00:c4:f9:6c:e5:9b:c0:89:7f:2e:
        a4:ed:ff:6a:ce:6d:99:6a:22:85:3d:09:2b:3b:21:fd:e6:08:
        cf:60:ca:8b:06:91:59:14:0a:06:36:3b:a8:e8:21:75:12:11:
        80:5a:3a:f2:50:79:06:14:d2:f0:af:fa:69:8b:38:c2:45:9a:
        b7:e5:d8:fc:bf:db:a3:c1:a9:62:3e:ab:04:45:09:60:fa:a3:
        e8:e7:91:4a:69:2c:fc:ea:a5:68:b1:b2:31:c5:d5:c1:e8:70:
        6b:9d:43:ad:f5:d5:8f:b0:ba:00:34:85:8d:d9:fe:29:a9:4b:
        fc:1c:90:63:69:10:59:f8:13:47:9b:af:b0:a2:67:fd:63:90:
        0f:74:f8:84:63:f0:5a:71:ec:f9:fe:69:9a:25:d0:95:20:b9:
        d7:17:df:71:75:69:db:b4:87:46:86:33:32:d9:eb:3f:44:30:
        ed:66:0d:af:1b:e7:65:d1:1d:2e:f3:32:b1:0a:a7:20:c0:37:
        16:f1:5f:cc:ba:74:8f:86:c7:68:d3:c9:3f:be:cc:9b:50:16:
        9d:9f:3d:19:24:5f:a1:93:9e:2b:17:ab:aa:a1:ae:bc:44:dd:
        6b:e9:71:64:c2:8f:3c:39:fa:28:fb:56:89:96:6c:45:b0:79:
        22:a5:38:9d:44:a2:db:35
-----BEGIN CERTIFICATE-----
MIIFajCCA1KgAwIBAgIBATANBgkqhkiG9w0BAQsFADCBvDELMAkGA1UEBhMCR0Ix
DzANBgNVBAgTBkxvbmRvbjEUMBIGA1UEBxMLV2VzdG1pbnN0ZXIxHjAcBgNVBAoT
FVNuYWtlIE9pbCAoU2FsZXMpIEx0ZDEoMCYGA1UECxMfQ2VydGlmaWNhdGlvbiBT
ZXJ2aWNlcyBEaXZpc2lvbjEaMBgGA1UEAxMRU25ha2UgT2lsIFJvb3QgQ0ExIDAe
BgkqhkiG9w0BCQEWEWNvYnJhQGJhZGd1eXMuY29tMB4XDTI0MDIyODE0MzQwN1oX
DTI2MTEyNDE0MzQwN1owgakxCzAJBgNVBAYTAkdCMQ8wDQYDVQQIEwZMb25kb24x
FDASBgNVBAcTC1dlc3RtaW5zdGVyMSAwHgYDVQQKExdTbmFrZSBPaWwgKFRyYWRp
bmcpIEx0ZDEaMBgGA1UECxMRU2VjdXJlIFdlYiBTZXJ2ZXIxEjAQBgNVBAMTCWxv
Y2FsaG9zdDEhMB8GCSqGSIb3DQEJARYScHl0aG9uQGJhZGd1eXMuY29tMIIBIjAN
BgkqhkiG9w0BAQEFAAOCAQ8AMIIBCgKCAQEA3sJ9stjR/DrT/J+cIN1cSPPr21e4
DFYAQjcvzpog1TEZSMP1uduG9iHCF8JaNnGe8jLHhdE2pT/BdhTwvx1SiwSIjerb
xt0eQ3HbaDB/n0HDHGLZrq2oWT8lyWhKcpeeqgrfJF1yIxtdT1p0zFVe35HUKSif
ZZYrR3VGyw91o64e8NzUQuxzvBuJZ/IuNPo5jnmU0Ef2Ntyfr6jVad9LjCDKTA45
S0zMP8OZr7LzQFyS8/uTuephXbfJd4WgThzF/EnNqdrsLC9k7o490S0m3AZ3XKXQ
taJwWwq881N4GVDHWRePhZOrlgyYcq+QFkJyeLsKFY5vLPQdS+XkXGcuFQIDAQAB
o4GHMIGEMB8GA1UdIwQYMBaAFEmvh3q7AadC5hd2Sn98IN389GG4MDQGA1UdJQQt
MCsGCCsGAQUFBwMBBggrBgEFBQcDAgYKKwYBBAGCNwoDAwYJYIZIAYb4QgQBMAwG
A1UdEwEB/wQCMAAwHQYDVR0OBBYEFOK9DcQXcXG5pcjRGMBhFhpNcIA0MA0GCSqG
SIb3DQEBCwUAA4ICAQAu7g0igOqcLsc07+lvxLi3W9IM4a4b0ukYveWFvje8v/fn
bprt/NR6jRgc5afOTNsBrK1noBvXvQO+TEFmXo2tg8U9kLn5HGUlWVoSA2UWWqcB
b+zXo5hXqNXErSDc7wOHnv9huhtWQhyRWrUYWaSCokLBYPdw2BK2BUkfniv1YQC3
ejQICC0kvnZqGsxTklRmintej8SUInLJTORM7BLqm0dKSo8uwzJs8mmpLEJn1JO+
QCBTncl2rT9X5xPhV3saROVA0Hvnxt34HgsOn1b21iab/hR439BqhFAF2C/I32oF
06CvcixrHApHgxdi2pGHnEM6pz0qsrF5q4UvSfk6oWbKuQDE+Wzlm8CJfy6k7f9q
zm2ZaiKFPQkrOyH95gjPYMqLBpFZFAoGNjuo6CF1EhGAWjryUHkGFNLwr/ppizjC
RZq35dj8v9ujwaliPqsERQlg+qPo55FKaSz86qVosbIxxdXB6HBrnUOt9dWPsLoA
NIWN2f4pqUv8HJBjaRBZ+BNHm6+womf9Y5APdPiEY/Bacez5/mmaJdCVILnXF99x
dWnbtIdGhjMy2es/RDDtZg2vG+dl0R0u8zKxCqcgwDcW8V/MunSPhsdo08k/vsyb
UBadnz0ZJF+hk54rF6uqoa68RN1r6XFkwo88Ofoo+1aJlmxFsHkipTidRKLbNQ==
-----END CERTIFICATE-----
